; Function Attrs: mustprogress uwtable
define void @_ZNK10open_spiel13cliff_walking17CliffWalkingState17ObservationTensorEiN4absl7debian24SpanIfEE(ptr noundef nonnull readonly align 8 captures(none) dereferenceable(84) %0, i32 noundef %1, ptr writeonly captures(none) %2, i64 %3) unnamed_addr #3 align 2 personality ptr @__gxx_personality_v0 {
  %5 = alloca i32, align 4
  %6 = alloca i32, align 4
  %7 = alloca %"class.std::__cxx11::basic_string", align 8
  %8 = alloca i32, align 4
  %9 = alloca i32, align 4
  %10 = alloca i32, align 4
  %11 = alloca %"class.std::__cxx11::basic_string", align 8
  %12 = alloca i32, align 4
  %13 = alloca i64, align 8
  %14 = alloca i32, align 4
  %15 = alloca %"class.std::__cxx11::basic_string", align 8
  %16 = alloca i32, align 4
  store i32 %1, ptr %5, align 4
  store i32 0, ptr %6, align 4
  %17 = icmp sgt i32 %1, -1
  br i1 %17, label %22, label %18

18:                                               ; preds = %4
  store i32 145, ptr %8, align 4
  call void @_ZN10open_spiel8internal11SpielStrCatIJRA146_KcRA2_S2_iS6_RA12_S2_RA8_S2_RA4_S2_RiRA7_S2_SD_EEENSt7__cxx1112basic_stringIcSt11char_traitsIcESaIcEEEDpOT_(ptr dead_on_unwind nonnull writable sret(%"class.std::__cxx11::basic_string") align 8 %7, ptr noundef nonnull align 1 dereferenceable(146) @.str.8, ptr noundef nonnull align 1 dereferenceable(2) @.str.9, ptr noundef nonnull align 4 dereferenceable(4) %8, ptr noundef nonnull align 1 dereferenceable(2) @.str.10, ptr noundef nonnull align 1 dereferenceable(12) @.str.20, ptr noundef nonnull align 1 dereferenceable(8) @.str.12, ptr noundef nonnull align 1 dereferenceable(4) @.str.13, ptr noundef nonnull align 4 dereferenceable(4) %5, ptr noundef nonnull align 1 dereferenceable(7) @.str.14, ptr noundef nonnull align 4 dereferenceable(4) %6)
  invoke void @_ZN10open_spiel15SpielFatalErrorERKNSt7__cxx1112basic_stringIcSt11char_traitsIcESaIcEEE(ptr noundef nonnull align 8 dereferenceable(32) %7) #23
          to label %19 unwind label %20

19:                                               ; preds = %18
  unreachable

20:                                               ; preds = %18
  %21 = landingpad { ptr, i32 }
          cleanup
  br label %55

22:                                               ; preds = %4
  store i32 %1, ptr %9, align 4
  %23 = getelementptr inbounds nuw i8, ptr %0, i64 28
  %24 = load i32, ptr %23, align 4
  store i32 %24, ptr %10, align 4
  %25 = icmp slt i32 %1, %24
  br i1 %25, label %30, label %26

26:                                               ; preds = %22
  store i32 146, ptr %12, align 4
  call void @_ZN10open_spiel8internal11SpielStrCatIJRA146_KcRA2_S2_iS6_RA22_S2_RA8_S2_RA4_S2_RiRA18_S2_SD_EEENSt7__cxx1112basic_stringIcSt11char_traitsIcESaIcEEEDpOT_(ptr dead_on_unwind nonnull writable sret(%"class.std::__cxx11::basic_string") align 8 %11, ptr noundef nonnull align 1 dereferenceable(146) @.str.8, ptr noundef nonnull align 1 dereferenceable(2) @.str.9, ptr noundef nonnull align 4 dereferenceable(4) %12, ptr noundef nonnull align 1 dereferenceable(2) @.str.10, ptr noundef nonnull align 1 dereferenceable(22) @.str.21, ptr noundef nonnull align 1 dereferenceable(8) @.str.12, ptr noundef nonnull align 1 dereferenceable(4) @.str.13, ptr noundef nonnull align 4 dereferenceable(4) %9, ptr noundef nonnull align 1 dereferenceable(18) @.str.22, ptr noundef nonnull align 4 dereferenceable(4) %10)
  invoke void @_ZN10open_spiel15SpielFatalErrorERKNSt7__cxx1112basic_stringIcSt11char_traitsIcESaIcEEE(ptr noundef nonnull align 8 dereferenceable(32) %11) #23
          to label %27 unwind label %28

27:                                               ; preds = %26
  unreachable

28:                                               ; preds = %26
  %29 = landingpad { ptr, i32 }
          cleanup
  br label %55

30:                                               ; preds = %22
  store i64 %3, ptr %13, align 8
  %31 = getelementptr inbounds nuw i8, ptr %0, i64 60
  %32 = load i32, ptr %31, align 4
  %33 = getelementptr inbounds nuw i8, ptr %0, i64 64
  %34 = load i32, ptr %33, align 8
  %35 = mul nsw i32 %34, %32
  store i32 %35, ptr %14, align 4
  %36 = sext i32 %35 to i64
  %37 = icmp eq i64 %3, %36
  br i1 %37, label %42, label %38

38:                                               ; preds = %30
  store i32 147, ptr %16, align 4
  call void @_ZN10open_spiel8internal11SpielStrCatIJRA146_KcRA2_S2_iS6_RA34_S2_RA15_S2_RA4_S2_RmRA22_S2_RiEEENSt7__cxx1112basic_stringIcSt11char_traitsIcESaIcEEEDpOT_(ptr dead_on_unwind nonnull writable sret(%"class.std::__cxx11::basic_string") align 8 %15, ptr noundef nonnull align 1 dereferenceable(146) @.str.8, ptr noundef nonnull align 1 dereferenceable(2) @.str.9, ptr noundef nonnull align 4 dereferenceable(4) %16, ptr noundef nonnull align 1 dereferenceable(2) @.str.10, ptr noundef nonnull align 1 dereferenceable(34) @.str.23, ptr noundef nonnull align 1 dereferenceable(15) @.str.24, ptr noundef nonnull align 1 dereferenceable(4) @.str.13, ptr noundef nonnull align 8 dereferenceable(8) %13, ptr noundef nonnull align 1 dereferenceable(22) @.str.25, ptr noundef nonnull align 4 dereferenceable(4) %14)
  invoke void @_ZN10open_spiel15SpielFatalErrorERKNSt7__cxx1112basic_stringIcSt11char_traitsIcESaIcEEE(ptr noundef nonnull align 8 dereferenceable(32) %15) #23
          to label %39 unwind label %40

39:                                               ; preds = %38
  unreachable

40:                                               ; preds = %38
  %41 = landingpad { ptr, i32 }
          cleanup
  br label %55

42:                                               ; preds = %30
  %.not6.i.i.i = icmp eq i64 %3, 0
  br i1 %.not6.i.i.i, label %_ZSt4fillIPfdEvT_S1_RKT0_.exit, label %.lr.ph.i.i.i.preheader

.lr.ph.i.i.i.preheader:                           ; preds = %42
  %43 = shl nsw i64 %3, 2
  tail call void @llvm.memset.p0.i64(ptr align 4 %2, i8 0, i64 %43, i1 false)
  %.pre = load i32, ptr %33, align 8
  br label %_ZSt4fillIPfdEvT_S1_RKT0_.exit

_ZSt4fillIPfdEvT_S1_RKT0_.exit:                   ; preds = %.lr.ph.i.i.i.preheader, %42
  %44 = phi i32 [ %.pre, %.lr.ph.i.i.i.preheader ], [ %34, %42 ]
  %45 = getelementptr inbounds nuw i8, ptr %0, i64 72
  %46 = load i32, ptr %45, align 8
  %47 = mul nsw i32 %44, %46
  %48 = getelementptr inbounds nuw i8, ptr %0, i64 76
  %49 = load i32, ptr %48, align 4
  %50 = add nsw i32 %47, %49
  %51 = sext i32 %50 to i64
  %52 = icmp ugt i64 %3, %51
  br i1 %52, label %_ZNK4absl7debian24SpanIfEixEm.exit, label %53

53:                                               ; preds = %_ZSt4fillIPfdEvT_S1_RKT0_.exit
  tail call void @llvm.trap()
  unreachable

_ZNK4absl7debian24SpanIfEixEm.exit:               ; preds = %_ZSt4fillIPfdEvT_S1_RKT0_.exit
  %54 = getelementptr inbounds float, ptr %2, i64 %51
  store float 1.000000e+00, ptr %54, align 4
  ret void

55:                                               ; preds = %40, %28, %20
  %.sink = phi ptr [ %15, %40 ], [ %11, %28 ], [ %7, %20 ]
  %.pn = phi { ptr, i32 } [ %41, %40 ], [ %29, %28 ], [ %21, %20 ]
  call void @_ZNSt7__cxx1112basic_stringIcSt11char_traitsIcESaIcEED1Ev(ptr noundef nonnull align 8 dereferenceable(32) %.sink) #24
  resume { ptr, i32 } %.pn
}